target datalayout = "e-m:e-p270:32:32-p271:32:32-p272:64:64-i64:64-i128:128-f80:128-n8:16:32:64-S128"
target triple = "x86_64-pc-linux-gnu"

%"class.cv::details::Chessboard::Board::PointIter" = type { i32, ptr }

; Function Attrs: mustprogress nounwind uwtable
define hidden void @_ZN2cv7details10Chessboard5Board9PointIteraSERKS3_(ptr noundef nonnull align 8 dereferenceable(16) %0, ptr noundef nonnull align 8 dereferenceable(16) %1) #7 align 2 {
  %3 = alloca ptr, align 8
  %4 = alloca ptr, align 8
  store ptr %0, ptr %3, align 8, !tbaa !229
  store ptr %1, ptr %4, align 8, !tbaa !229
  %5 = load ptr, ptr %3, align 8
  %6 = load ptr, ptr %4, align 8, !tbaa !229
  %7 = getelementptr inbounds nuw %"class.cv::details::Chessboard::Board::PointIter", ptr %6, i32 0, i32 0
  %8 = load i32, ptr %7, align 8, !tbaa !233
  %9 = getelementptr inbounds nuw %"class.cv::details::Chessboard::Board::PointIter", ptr %5, i32 0, i32 0
  store i32 %8, ptr %9, align 8, !tbaa !233
  %10 = load ptr, ptr %4, align 8, !tbaa !229
  %11 = getelementptr inbounds nuw %"class.cv::details::Chessboard::Board::PointIter", ptr %10, i32 0, i32 1
  %12 = load ptr, ptr %11, align 8, !tbaa !235
  %13 = getelementptr inbounds nuw %"class.cv::details::Chessboard::Board::PointIter", ptr %5, i32 0, i32 1
  store ptr %12, ptr %13, align 8, !tbaa !235
  ret void
}